target datalayout = "e-m:e-p270:32:32-p271:32:32-p272:64:64-i64:64-i128:128-f80:128-n8:16:32:64-S128"
target triple = "x86_64-pc-linux-gnu"

%struct.cli_crt_t = type { ptr, [64 x i8], [64 x i8], [64 x i8], [20 x i8], [20 x i8], [20 x i8], i32, [64 x i8], ptr, ptr, ptr, i64, i64, i32, i32, i32, i32, i32, ptr, ptr }
%struct.crtmgr = type { ptr, i32 }

; Function Attrs: nounwind uwtable
define void @cli_crt_clear(ptr noundef %0) #0 {
  %2 = alloca ptr, align 8
  store ptr %0, ptr %2, align 8
  %3 = load ptr, ptr %2, align 8
  %4 = getelementptr inbounds %struct.cli_crt_t, ptr %3, i32 0, i32 9
  %5 = load ptr, ptr %4, align 8
  call void @BN_free(ptr noundef %5)
  %6 = load ptr, ptr %2, align 8
  %7 = getelementptr inbounds %struct.cli_crt_t, ptr %6, i32 0, i32 10
  %8 = load ptr, ptr %7, align 8
  call void @BN_free(ptr noundef %8)
  %9 = load ptr, ptr %2, align 8
  %10 = getelementptr inbounds %struct.cli_crt_t, ptr %9, i32 0, i32 11
  %11 = load ptr, ptr %10, align 8
  call void @BN_free(ptr noundef %11)
  %12 = load ptr, ptr %2, align 8
  %13 = getelementptr inbounds %struct.cli_crt_t, ptr %12, i32 0, i32 9
  store ptr null, ptr %13, align 8
  %14 = load ptr, ptr %2, align 8
  %15 = getelementptr inbounds %struct.cli_crt_t, ptr %14, i32 0, i32 10
  store ptr null, ptr %15, align 8
  %16 = load ptr, ptr %2, align 8
  %17 = getelementptr inbounds %struct.cli_crt_t, ptr %16, i32 0, i32 11
  store ptr null, ptr %17, align 8
  ret void
}

; Function Attrs: nounwind uwtable
define void @crtmgr_del(ptr noundef %0, ptr noundef %1) #0 {
  %3 = alloca ptr, align 8
  %4 = alloca ptr, align 8
  %5 = alloca ptr, align 8
  store ptr %0, ptr %3, align 8
  store ptr %1, ptr %4, align 8
  %6 = load ptr, ptr %3, align 8
  %7 = getelementptr inbounds %struct.crtmgr, ptr %6, i32 0, i32 0
  %8 = load ptr, ptr %7, align 8
  store ptr %8, ptr %5, align 8
  br label %9

9:                                                ; preds = %65, %2
  %10 = load ptr, ptr %5, align 8
  %11 = icmp ne ptr %10, null
  br i1 %11, label %12, label %69

12:                                               ; preds = %9
  %13 = load ptr, ptr %5, align 8
  %14 = load ptr, ptr %4, align 8
  %15 = icmp eq ptr %13, %14
  br i1 %15, label %16, label %64

16:                                               ; preds = %12
  %17 = load ptr, ptr %5, align 8
  %18 = getelementptr inbounds %struct.cli_crt_t, ptr %17, i32 0, i32 19
  %19 = load ptr, ptr %18, align 8
  %20 = icmp ne ptr %19, null
  br i1 %20, label %21, label %29

21:                                               ; preds = %16
  %22 = load ptr, ptr %5, align 8
  %23 = getelementptr inbounds %struct.cli_crt_t, ptr %22, i32 0, i32 20
  %24 = load ptr, ptr %23, align 8
  %25 = load ptr, ptr %5, align 8
  %26 = getelementptr inbounds %struct.cli_crt_t, ptr %25, i32 0, i32 19
  %27 = load ptr, ptr %26, align 8
  %28 = getelementptr inbounds %struct.cli_crt_t, ptr %27, i32 0, i32 20
  store ptr %24, ptr %28, align 8
  br label %35

29:                                               ; preds = %16
  %30 = load ptr, ptr %5, align 8
  %31 = getelementptr inbounds %struct.cli_crt_t, ptr %30, i32 0, i32 20
  %32 = load ptr, ptr %31, align 8
  %33 = load ptr, ptr %3, align 8
  %34 = getelementptr inbounds %struct.crtmgr, ptr %33, i32 0, i32 0
  store ptr %32, ptr %34, align 8
  br label %35

35:                                               ; preds = %29, %21
  %36 = load ptr, ptr %5, align 8
  %37 = getelementptr inbounds %struct.cli_crt_t, ptr %36, i32 0, i32 20
  %38 = load ptr, ptr %37, align 8
  %39 = icmp ne ptr %38, null
  br i1 %39, label %40, label %48

40:                                               ; preds = %35
  %41 = load ptr, ptr %5, align 8
  %42 = getelementptr inbounds %struct.cli_crt_t, ptr %41, i32 0, i32 19
  %43 = load ptr, ptr %42, align 8
  %44 = load ptr, ptr %5, align 8
  %45 = getelementptr inbounds %struct.cli_crt_t, ptr %44, i32 0, i32 20
  %46 = load ptr, ptr %45, align 8
  %47 = getelementptr inbounds %struct.cli_crt_t, ptr %46, i32 0, i32 19
  store ptr %43, ptr %47, align 8
  br label %48

48:                                               ; preds = %40, %35
  %49 = load ptr, ptr %4, align 8
  call void @cli_crt_clear(ptr noundef %49)
  %50 = load ptr, ptr %4, align 8
  %51 = getelementptr inbounds %struct.cli_crt_t, ptr %50, i32 0, i32 0
  %52 = load ptr, ptr %51, align 8
  %53 = icmp ne ptr %52, null
  br i1 %53, label %54, label %58

54:                                               ; preds = %48
  %55 = load ptr, ptr %4, align 8
  %56 = getelementptr inbounds %struct.cli_crt_t, ptr %55, i32 0, i32 0
  %57 = load ptr, ptr %56, align 8
  call void @free(ptr noundef %57) #9
  br label %58

58:                                               ; preds = %54, %48
  %59 = load ptr, ptr %4, align 8
  call void @free(ptr noundef %59) #9
  %60 = load ptr, ptr %3, align 8
  %61 = getelementptr inbounds %struct.crtmgr, ptr %60, i32 0, i32 1
  %62 = load i32, ptr %61, align 8
  %63 = add i32 %62, -1
  store i32 %63, ptr %61, align 8
  br label %69

64:                                               ; preds = %12
  br label %65

65:                                               ; preds = %64
  %66 = load ptr, ptr %5, align 8
  %67 = getelementptr inbounds %struct.cli_crt_t, ptr %66, i32 0, i32 20
  %68 = load ptr, ptr %67, align 8
  store ptr %68, ptr %5, align 8
  br label %9

69:                                               ; preds = %58, %9
  ret void
}